target datalayout = "e-m:e-p270:32:32-p271:32:32-p272:64:64-i64:64-i128:128-f80:128-n8:16:32:64-S128"
target triple = "x86_64-pc-linux-gnu"

%struct.FWCfgState = type { %struct.SysBusDevice, i16, [2 x ptr], ptr, ptr, i16, i32, %struct.Notifier, i32, i8, i64, ptr, %struct.MemoryRegion, i8, i64, i64, i64 }
%struct.SysBusDevice = type { %struct.DeviceState, i32, [32 x %struct.anon], i32, [32 x i32] }
%struct.DeviceState = type { %struct.Object, ptr, ptr, i8, i8, i64, i32, i8, ptr, %struct.NamedGPIOListHead, %struct.NamedClockListHead, %struct.BusStateHead, i32, i32, i32, %struct.ResettableState, ptr, %struct.MemReentrancyGuard }
%struct.Object = type { ptr, ptr, ptr, i32, ptr }
%struct.NamedGPIOListHead = type { ptr }
%struct.NamedClockListHead = type { ptr }
%struct.BusStateHead = type { ptr }
%struct.ResettableState = type { i32, i8, i8 }
%struct.MemReentrancyGuard = type { i8 }
%struct.anon = type { i64, ptr }
%struct.Notifier = type { ptr, %struct.anon.0 }
%struct.anon.0 = type { ptr, ptr }
%struct.MemoryRegion = type { %struct.Object, i8, i8, i8, i8, i8, i8, i8, i8, i8, i8, ptr, ptr, ptr, ptr, ptr, ptr, i32, i128, i64, ptr, i64, i8, i8, i8, i8, ptr, i64, i32, %union.anon, %union.anon.1, %union.anon.2, ptr, i32, ptr, ptr, i8 }
%union.anon = type { %struct.QTailQLink }
%struct.QTailQLink = type { ptr, ptr }
%union.anon.1 = type { %struct.QTailQLink }
%union.anon.2 = type { %struct.QTailQLink }
%struct.FWCfgEntry = type { i32, i8, ptr, ptr, ptr, ptr }
%struct.timeval = type { i64, i64 }

@.str.1 = private unnamed_addr constant [26 x i8] c"../qemu/hw/nvram/fw_cfg.c\00", align 1
@trace_events_enabled_count = external global i32, align 4
@_TRACE_FW_CFG_ADD_BYTES_DSTATE = external global i16, align 2
@message_with_timestamp = external global i8, align 1
@.str.17 = private unnamed_addr constant [58 x i8] c"%d@%zu.%06zu:fw_cfg_add_bytes key 0x%04x '%s', %zu bytes\0A\00", align 1
@.str.18 = private unnamed_addr constant [45 x i8] c"fw_cfg_add_bytes key 0x%04x '%s', %zu bytes\0A\00", align 1
@qemu_loglevel = external global i32, align 4
@.str.19 = private unnamed_addr constant [8 x i8] c"unknown\00", align 1
@.str.46 = private unnamed_addr constant [46 x i8] c"key < fw_cfg_max_entry(s) && len < UINT32_MAX\00", align 1
@__PRETTY_FUNCTION__.fw_cfg_add_bytes_callback = private unnamed_addr constant [121 x i8] c"void fw_cfg_add_bytes_callback(FWCfgState *, uint16_t, FWCfgCallback, FWCfgWriteCallback, void *, void *, size_t, _Bool)\00", align 1
@.str.47 = private unnamed_addr constant [35 x i8] c"s->entries[arch][key].data == NULL\00", align 1

; Function Attrs: inlinehint nounwind sspstrong uwtable
define internal zeroext i16 @fw_cfg_file_slots(ptr noundef %0) #2 {
  %2 = alloca ptr, align 8
  store ptr %0, ptr %2, align 8
  %3 = load ptr, ptr %2, align 8
  %4 = getelementptr inbounds nuw %struct.FWCfgState, ptr %3, i32 0, i32 1
  %5 = load i16, ptr %4, align 8
  ret i16 %5
}

; Function Attrs: inlinehint nounwind sspstrong uwtable
define internal zeroext i1 @qemu_loglevel_mask(i32 noundef %0) #2 {
  %2 = alloca i32, align 4
  store i32 %0, ptr %2, align 4
  %3 = load i32, ptr @qemu_loglevel, align 4
  %4 = load i32, ptr %2, align 4
  %5 = and i32 %3, %4
  %6 = icmp ne i32 %5, 0
  ret i1 %6
}

; Function Attrs: inlinehint nounwind sspstrong uwtable
define internal i32 @fw_cfg_max_entry(ptr noundef %0) #2 {
  %2 = alloca ptr, align 8
  store ptr %0, ptr %2, align 8
  %3 = load ptr, ptr %2, align 8
  %4 = call zeroext i16 @fw_cfg_file_slots(ptr noundef %3)
  %5 = zext i16 %4 to i32
  %6 = add i32 32, %5
  ret i32 %6
}

; Function Attrs: inlinehint nounwind sspstrong uwtable
define internal void @_nocheck__trace_fw_cfg_add_bytes(i16 noundef zeroext %0, ptr noundef %1, i64 noundef %2) #2 {
  %4 = alloca i16, align 2
  %5 = alloca ptr, align 8
  %6 = alloca i64, align 8
  %7 = alloca %struct.timeval, align 8
  store i16 %0, ptr %4, align 2
  store ptr %1, ptr %5, align 8
  store i64 %2, ptr %6, align 8
  %8 = load i32, ptr @trace_events_enabled_count, align 4
  %9 = icmp ne i32 %8, 0
  %10 = xor i1 %9, true
  %11 = xor i1 %10, true
  %12 = zext i1 %11 to i32
  %13 = sext i32 %12 to i64
  %14 = call i64 @llvm.expect.i64(i64 %13, i64 0)
  %15 = icmp ne i64 %14, 0
  br i1 %15, label %16, label %42

16:                                               ; preds = %3
  %17 = load i16, ptr @_TRACE_FW_CFG_ADD_BYTES_DSTATE, align 2
  %18 = zext i16 %17 to i32
  %19 = icmp ne i32 %18, 0
  br i1 %19, label %20, label %42

20:                                               ; preds = %16
  %21 = call zeroext i1 @qemu_loglevel_mask(i32 noundef 32768)
  br i1 %21, label %22, label %42

22:                                               ; preds = %20
  %23 = load i8, ptr @message_with_timestamp, align 1, !range !4, !noundef !5
  %24 = trunc i8 %23 to i1
  br i1 %24, label %25, label %36

25:                                               ; preds = %22
  call void @llvm.lifetime.start.p0(i64 16, ptr %7) #18
  call void @llvm.memset.p0.i64(ptr align 8 %7, i8 0, i64 16, i1 false), !annotation !6
  %26 = call i32 @gettimeofday(ptr noundef %7, ptr noundef null) #18
  %27 = call i32 @qemu_get_thread_id()
  %28 = getelementptr inbounds nuw %struct.timeval, ptr %7, i32 0, i32 0
  %29 = load i64, ptr %28, align 8
  %30 = getelementptr inbounds nuw %struct.timeval, ptr %7, i32 0, i32 1
  %31 = load i64, ptr %30, align 8
  %32 = load i16, ptr %4, align 2
  %33 = zext i16 %32 to i32
  %34 = load ptr, ptr %5, align 8
  %35 = load i64, ptr %6, align 8
  call void (ptr, ...) @qemu_log(ptr noundef @.str.17, i32 noundef %27, i64 noundef %29, i64 noundef %31, i32 noundef %33, ptr noundef %34, i64 noundef %35)
  call void @llvm.lifetime.end.p0(i64 16, ptr %7) #18
  br label %41

36:                                               ; preds = %22
  %37 = load i16, ptr %4, align 2
  %38 = zext i16 %37 to i32
  %39 = load ptr, ptr %5, align 8
  %40 = load i64, ptr %6, align 8
  call void (ptr, ...) @qemu_log(ptr noundef @.str.18, i32 noundef %38, ptr noundef %39, i64 noundef %40)
  br label %41

41:                                               ; preds = %36, %25
  br label %42

42:                                               ; preds = %41, %20, %16, %3
  ret void
}

; Function Attrs: nounwind sspstrong uwtable
define internal ptr @key_name(i16 noundef zeroext %0) #0 {
  %2 = alloca ptr, align 8
  %3 = alloca i16, align 2
  store i16 %0, ptr %3, align 2
  %4 = load i16, ptr %3, align 2
  %5 = zext i16 %4 to i32
  %6 = and i32 %5, 32768
  %7 = icmp ne i32 %6, 0
  br i1 %7, label %8, label %11

8:                                                ; preds = %1
  %9 = load i16, ptr %3, align 2
  %10 = call ptr @fw_cfg_arch_key_name(i16 noundef zeroext %9)
  store ptr %10, ptr %2, align 8
  br label %21

11:                                               ; preds = %1
  %12 = load i16, ptr %3, align 2
  %13 = zext i16 %12 to i32
  %14 = icmp slt i32 %13, 32
  br i1 %14, label %15, label %20

15:                                               ; preds = %11
  %16 = load i16, ptr %3, align 2
  %17 = zext i16 %16 to i64
  %18 = getelementptr inbounds nuw [32 x ptr], ptr @key_name.fw_cfg_wellknown_keys, i64 0, i64 %17
  %19 = load ptr, ptr %18, align 8
  store ptr %19, ptr %2, align 8
  br label %21

20:                                               ; preds = %11
  store ptr null, ptr %2, align 8
  br label %21

21:                                               ; preds = %20, %15, %8
  %22 = load ptr, ptr %2, align 8
  ret ptr %22
}

; Function Attrs: nounwind sspstrong uwtable
define internal void @fw_cfg_add_bytes_callback(ptr noundef %0, i16 noundef zeroext %1, ptr noundef %2, ptr noundef %3, ptr noundef %4, ptr noundef %5, i64 noundef %6, i1 noundef zeroext %7) #0 {
  %9 = alloca ptr, align 8
  %10 = alloca i16, align 2
  %11 = alloca ptr, align 8
  %12 = alloca ptr, align 8
  %13 = alloca ptr, align 8
  %14 = alloca ptr, align 8
  %15 = alloca i64, align 8
  %16 = alloca i8, align 1
  %17 = alloca i32, align 4
  store ptr %0, ptr %9, align 8
  store i16 %1, ptr %10, align 2
  store ptr %2, ptr %11, align 8
  store ptr %3, ptr %12, align 8
  store ptr %4, ptr %13, align 8
  store ptr %5, ptr %14, align 8
  store i64 %6, ptr %15, align 8
  %18 = zext i1 %7 to i8
  store i8 %18, ptr %16, align 1
  call void @llvm.lifetime.start.p0(i64 4, ptr %17) #18
  %19 = load i16, ptr %10, align 2
  %20 = zext i16 %19 to i32
  %21 = and i32 %20, 32768
  %22 = icmp ne i32 %21, 0
  %23 = xor i1 %22, true
  %24 = xor i1 %23, true
  %25 = zext i1 %24 to i32
  store i32 %25, ptr %17, align 4
  %26 = load i16, ptr %10, align 2
  %27 = zext i16 %26 to i32
  %28 = and i32 %27, -49153
  %29 = trunc i32 %28 to i16
  store i16 %29, ptr %10, align 2
  %30 = load i16, ptr %10, align 2
  %31 = zext i16 %30 to i32
  %32 = load ptr, ptr %9, align 8
  %33 = call i32 @fw_cfg_max_entry(ptr noundef %32)
  %34 = icmp ult i32 %31, %33
  br i1 %34, label %35, label %39

35:                                               ; preds = %8
  %36 = load i64, ptr %15, align 8
  %37 = icmp ult i64 %36, 4294967295
  br i1 %37, label %38, label %39

38:                                               ; preds = %35
  br label %40

39:                                               ; preds = %35, %8
  call void @__assert_fail(ptr noundef @.str.46, ptr noundef @.str.1, i32 noundef 707, ptr noundef @__PRETTY_FUNCTION__.fw_cfg_add_bytes_callback) #19
  unreachable

40:                                               ; preds = %38
  %41 = load ptr, ptr %9, align 8
  %42 = getelementptr inbounds nuw %struct.FWCfgState, ptr %41, i32 0, i32 2
  %43 = load i32, ptr %17, align 4
  %44 = sext i32 %43 to i64
  %45 = getelementptr inbounds [2 x ptr], ptr %42, i64 0, i64 %44
  %46 = load ptr, ptr %45, align 8
  %47 = load i16, ptr %10, align 2
  %48 = zext i16 %47 to i64
  %49 = getelementptr inbounds nuw %struct.FWCfgEntry, ptr %46, i64 %48
  %50 = getelementptr inbounds nuw %struct.FWCfgEntry, ptr %49, i32 0, i32 2
  %51 = load ptr, ptr %50, align 8
  %52 = icmp eq ptr %51, null
  br i1 %52, label %53, label %54

53:                                               ; preds = %40
  br label %55

54:                                               ; preds = %40
  call void @__assert_fail(ptr noundef @.str.47, ptr noundef @.str.1, i32 noundef 708, ptr noundef @__PRETTY_FUNCTION__.fw_cfg_add_bytes_callback) #19
  unreachable

55:                                               ; preds = %53
  %56 = load ptr, ptr %14, align 8
  %57 = load ptr, ptr %9, align 8
  %58 = getelementptr inbounds nuw %struct.FWCfgState, ptr %57, i32 0, i32 2
  %59 = load i32, ptr %17, align 4
  %60 = sext i32 %59 to i64
  %61 = getelementptr inbounds [2 x ptr], ptr %58, i64 0, i64 %60
  %62 = load ptr, ptr %61, align 8
  %63 = load i16, ptr %10, align 2
  %64 = zext i16 %63 to i64
  %65 = getelementptr inbounds nuw %struct.FWCfgEntry, ptr %62, i64 %64
  %66 = getelementptr inbounds nuw %struct.FWCfgEntry, ptr %65, i32 0, i32 2
  store ptr %56, ptr %66, align 8
  %67 = load i64, ptr %15, align 8
  %68 = trunc i64 %67 to i32
  %69 = load ptr, ptr %9, align 8
  %70 = getelementptr inbounds nuw %struct.FWCfgState, ptr %69, i32 0, i32 2
  %71 = load i32, ptr %17, align 4
  %72 = sext i32 %71 to i64
  %73 = getelementptr inbounds [2 x ptr], ptr %70, i64 0, i64 %72
  %74 = load ptr, ptr %73, align 8
  %75 = load i16, ptr %10, align 2
  %76 = zext i16 %75 to i64
  %77 = getelementptr inbounds nuw %struct.FWCfgEntry, ptr %74, i64 %76
  %78 = getelementptr inbounds nuw %struct.FWCfgEntry, ptr %77, i32 0, i32 0
  store i32 %68, ptr %78, align 8
  %79 = load ptr, ptr %11, align 8
  %80 = load ptr, ptr %9, align 8
  %81 = getelementptr inbounds nuw %struct.FWCfgState, ptr %80, i32 0, i32 2
  %82 = load i32, ptr %17, align 4
  %83 = sext i32 %82 to i64
  %84 = getelementptr inbounds [2 x ptr], ptr %81, i64 0, i64 %83
  %85 = load ptr, ptr %84, align 8
  %86 = load i16, ptr %10, align 2
  %87 = zext i16 %86 to i64
  %88 = getelementptr inbounds nuw %struct.FWCfgEntry, ptr %85, i64 %87
  %89 = getelementptr inbounds nuw %struct.FWCfgEntry, ptr %88, i32 0, i32 4
  store ptr %79, ptr %89, align 8
  %90 = load ptr, ptr %12, align 8
  %91 = load ptr, ptr %9, align 8
  %92 = getelementptr inbounds nuw %struct.FWCfgState, ptr %91, i32 0, i32 2
  %93 = load i32, ptr %17, align 4
  %94 = sext i32 %93 to i64
  %95 = getelementptr inbounds [2 x ptr], ptr %92, i64 0, i64 %94
  %96 = load ptr, ptr %95, align 8
  %97 = load i16, ptr %10, align 2
  %98 = zext i16 %97 to i64
  %99 = getelementptr inbounds nuw %struct.FWCfgEntry, ptr %96, i64 %98
  %100 = getelementptr inbounds nuw %struct.FWCfgEntry, ptr %99, i32 0, i32 5
  store ptr %90, ptr %100, align 8
  %101 = load ptr, ptr %13, align 8
  %102 = load ptr, ptr %9, align 8
  %103 = getelementptr inbounds nuw %struct.FWCfgState, ptr %102, i32 0, i32 2
  %104 = load i32, ptr %17, align 4
  %105 = sext i32 %104 to i64
  %106 = getelementptr inbounds [2 x ptr], ptr %103, i64 0, i64 %105
  %107 = load ptr, ptr %106, align 8
  %108 = load i16, ptr %10, align 2
  %109 = zext i16 %108 to i64
  %110 = getelementptr inbounds nuw %struct.FWCfgEntry, ptr %107, i64 %109
  %111 = getelementptr inbounds nuw %struct.FWCfgEntry, ptr %110, i32 0, i32 3
  store ptr %101, ptr %111, align 8
  %112 = load i8, ptr %16, align 1, !range !4, !noundef !5
  %113 = trunc i8 %112 to i1
  %114 = xor i1 %113, true
  %115 = load ptr, ptr %9, align 8
  %116 = getelementptr inbounds nuw %struct.FWCfgState, ptr %115, i32 0, i32 2
  %117 = load i32, ptr %17, align 4
  %118 = sext i32 %117 to i64
  %119 = getelementptr inbounds [2 x ptr], ptr %116, i64 0, i64 %118
  %120 = load ptr, ptr %119, align 8
  %121 = load i16, ptr %10, align 2
  %122 = zext i16 %121 to i64
  %123 = getelementptr inbounds nuw %struct.FWCfgEntry, ptr %120, i64 %122
  %124 = getelementptr inbounds nuw %struct.FWCfgEntry, ptr %123, i32 0, i32 1
  %125 = zext i1 %114 to i8
  store i8 %125, ptr %124, align 4
  call void @llvm.lifetime.end.p0(i64 4, ptr %17) #18
  ret void
}

; Function Attrs: inlinehint nounwind sspstrong uwtable
define internal void @trace_fw_cfg_add_bytes(i16 noundef zeroext %0, ptr noundef %1, i64 noundef %2) #2 {
  %4 = alloca i16, align 2
  %5 = alloca ptr, align 8
  %6 = alloca i64, align 8
  store i16 %0, ptr %4, align 2
  store ptr %1, ptr %5, align 8
  store i64 %2, ptr %6, align 8
  %7 = load i16, ptr %4, align 2
  %8 = load ptr, ptr %5, align 8
  %9 = load i64, ptr %6, align 8
  call void @_nocheck__trace_fw_cfg_add_bytes(i16 noundef zeroext %7, ptr noundef %8, i64 noundef %9)
  ret void
}

; Function Attrs: inlinehint nounwind sspstrong uwtable
define internal ptr @trace_key_name(i16 noundef zeroext %0) #2 {
  %2 = alloca i16, align 2
  %3 = alloca ptr, align 8
  store i16 %0, ptr %2, align 2
  call void @llvm.lifetime.start.p0(i64 8, ptr %3) #18
  %4 = load i16, ptr %2, align 2
  %5 = call ptr @key_name(i16 noundef zeroext %4)
  store ptr %5, ptr %3, align 8
  %6 = load ptr, ptr %3, align 8
  %7 = icmp ne ptr %6, null
  br i1 %7, label %8, label %10

8:                                                ; preds = %1
  %9 = load ptr, ptr %3, align 8
  br label %11

10:                                               ; preds = %1
  br label %11

11:                                               ; preds = %10, %8
  %12 = phi ptr [ %9, %8 ], [ @.str.19, %10 ]
  call void @llvm.lifetime.end.p0(i64 8, ptr %3) #18
  ret ptr %12
}

; Function Attrs: nounwind sspstrong uwtable
define dso_local void @fw_cfg_add_bytes(ptr noundef %0, i16 noundef zeroext %1, ptr noundef %2, i64 noundef %3) #0 {
  %5 = alloca ptr, align 8
  %6 = alloca i16, align 2
  %7 = alloca ptr, align 8
  %8 = alloca i64, align 8
  store ptr %0, ptr %5, align 8
  store i16 %1, ptr %6, align 2
  store ptr %2, ptr %7, align 8
  store i64 %3, ptr %8, align 8
  %9 = load i16, ptr %6, align 2
  %10 = load i16, ptr %6, align 2
  %11 = call ptr @trace_key_name(i16 noundef zeroext %10)
  %12 = load i64, ptr %8, align 8
  call void @trace_fw_cfg_add_bytes(i16 noundef zeroext %9, ptr noundef %11, i64 noundef %12)
  %13 = load ptr, ptr %5, align 8
  %14 = load i16, ptr %6, align 2
  %15 = load ptr, ptr %7, align 8
  %16 = load i64, ptr %8, align 8
  call void @fw_cfg_add_bytes_callback(ptr noundef %13, i16 noundef zeroext %14, ptr noundef null, ptr noundef null, ptr noundef null, ptr noundef %15, i64 noundef %16, i1 noundef zeroext true)
  ret void
}