; Function Attrs: nounwind sspstrong uwtable
define dso_local void @fw_cfg_add_bytes(ptr noundef readonly captures(none) %0, i16 noundef zeroext %1, ptr noundef %2, i64 noundef %3) local_unnamed_addr #2 {
  %5 = alloca %struct.timeval, align 8
  %.not.i.i = icmp sgt i16 %1, -1
  br i1 %.not.i.i, label %8, label %6

6:                                                ; preds = %4
  %7 = tail call ptr @fw_cfg_arch_key_name(i16 noundef zeroext %1) #18
  br label %trace_key_name.exit

8:                                                ; preds = %4
  %9 = icmp samesign ult i16 %1, 32
  br i1 %9, label %10, label %trace_key_name.exit

10:                                               ; preds = %8
  %11 = zext nneg i16 %1 to i64
  %12 = getelementptr inbounds nuw [32 x ptr], ptr @key_name.fw_cfg_wellknown_keys, i64 0, i64 %11
  %13 = load ptr, ptr %12, align 8
  br label %trace_key_name.exit

trace_key_name.exit:                              ; preds = %6, %8, %10
  %.0.i.i = phi ptr [ %7, %6 ], [ %13, %10 ], [ null, %8 ]
  %.not.i = icmp eq ptr %.0.i.i, null
  %14 = select i1 %.not.i, ptr @.str.19, ptr %.0.i.i
  %15 = load i32, ptr @trace_events_enabled_count, align 4
  %.not.i.i6 = icmp eq i32 %15, 0
  br i1 %.not.i.i6, label %trace_fw_cfg_add_bytes.exit, label %16, !prof !6

16:                                               ; preds = %trace_key_name.exit
  %17 = load i16, ptr @_TRACE_FW_CFG_ADD_BYTES_DSTATE, align 2
  %.not5.i.i = icmp eq i16 %17, 0
  br i1 %.not5.i.i, label %trace_fw_cfg_add_bytes.exit, label %18

18:                                               ; preds = %16
  %19 = load i32, ptr @qemu_loglevel, align 4
  %20 = and i32 %19, 32768
  %.not6.i.i = icmp eq i32 %20, 0
  br i1 %.not6.i.i, label %trace_fw_cfg_add_bytes.exit, label %21

21:                                               ; preds = %18
  %22 = load i8, ptr @message_with_timestamp, align 1, !range !4, !noundef !5
  %23 = trunc nuw i8 %22 to i1
  br i1 %23, label %24, label %31

24:                                               ; preds = %21
  call void @llvm.lifetime.start.p0(i64 16, ptr nonnull %5) #18
  call void @llvm.memset.p0.i64(ptr noundef nonnull align 8 dereferenceable(16) %5, i8 0, i64 16, i1 false), !annotation !7
  %25 = call i32 @gettimeofday(ptr noundef nonnull %5, ptr noundef null) #18
  %26 = tail call i32 @qemu_get_thread_id() #18
  %27 = load i64, ptr %5, align 8
  %28 = getelementptr inbounds nuw i8, ptr %5, i64 8
  %29 = load i64, ptr %28, align 8
  %30 = zext i16 %1 to i32
  tail call void (ptr, ...) @qemu_log(ptr noundef nonnull @.str.17, i32 noundef %26, i64 noundef %27, i64 noundef %29, i32 noundef %30, ptr noundef nonnull %14, i64 noundef %3) #18
  call void @llvm.lifetime.end.p0(i64 16, ptr nonnull %5) #18
  br label %trace_fw_cfg_add_bytes.exit

31:                                               ; preds = %21
  %32 = zext i16 %1 to i32
  tail call void (ptr, ...) @qemu_log(ptr noundef nonnull @.str.18, i32 noundef %32, ptr noundef nonnull %14, i64 noundef %3) #18
  br label %trace_fw_cfg_add_bytes.exit

trace_fw_cfg_add_bytes.exit:                      ; preds = %trace_key_name.exit, %16, %18, %24, %31
  %33 = and i16 %1, 16383
  %34 = zext nneg i16 %33 to i32
  %35 = getelementptr i8, ptr %0, i64 808
  %.val.i = load i16, ptr %35, align 8
  %36 = zext i16 %.val.i to i32
  %37 = add nuw nsw i32 %36, 32
  %38 = icmp samesign ugt i32 %37, %34
  %39 = icmp ult i64 %3, 4294967295
  %or.cond.i = and i1 %39, %38
  br i1 %or.cond.i, label %41, label %40

40:                                               ; preds = %trace_fw_cfg_add_bytes.exit
  tail call void @__assert_fail(ptr noundef nonnull @.str.46, ptr noundef nonnull @.str.1, i32 noundef 707, ptr noundef nonnull @__PRETTY_FUNCTION__.fw_cfg_add_bytes_callback) #19
  unreachable

41:                                               ; preds = %trace_fw_cfg_add_bytes.exit
  %.lobit.i = lshr i16 %1, 15
  %42 = getelementptr inbounds nuw i8, ptr %0, i64 816
  %43 = zext nneg i16 %.lobit.i to i64
  %44 = getelementptr inbounds nuw [2 x ptr], ptr %42, i64 0, i64 %43
  %45 = load ptr, ptr %44, align 8
  %46 = zext nneg i16 %33 to i64
  %47 = getelementptr inbounds nuw %struct.FWCfgEntry, ptr %45, i64 %46, i32 2
  %48 = load ptr, ptr %47, align 8
  %49 = icmp eq ptr %48, null
  br i1 %49, label %fw_cfg_add_bytes_callback.exit, label %50

50:                                               ; preds = %41
  tail call void @__assert_fail(ptr noundef nonnull @.str.47, ptr noundef nonnull @.str.1, i32 noundef 708, ptr noundef nonnull @__PRETTY_FUNCTION__.fw_cfg_add_bytes_callback) #19
  unreachable

fw_cfg_add_bytes_callback.exit:                   ; preds = %41
  store ptr %2, ptr %47, align 8
  %51 = trunc nuw i64 %3 to i32
  %52 = load ptr, ptr %44, align 8
  %53 = getelementptr inbounds nuw %struct.FWCfgEntry, ptr %52, i64 %46
  store i32 %51, ptr %53, align 8
  %54 = load ptr, ptr %44, align 8
  %55 = getelementptr inbounds nuw %struct.FWCfgEntry, ptr %54, i64 %46, i32 4
  store ptr null, ptr %55, align 8
  %56 = load ptr, ptr %44, align 8
  %57 = getelementptr inbounds nuw %struct.FWCfgEntry, ptr %56, i64 %46, i32 5
  store ptr null, ptr %57, align 8
  %58 = load ptr, ptr %44, align 8
  %59 = getelementptr inbounds nuw %struct.FWCfgEntry, ptr %58, i64 %46, i32 3
  store ptr null, ptr %59, align 8
  %60 = load ptr, ptr %44, align 8
  %61 = getelementptr inbounds nuw %struct.FWCfgEntry, ptr %60, i64 %46, i32 1
  store i8 0, ptr %61, align 4
  ret void
}